; ModuleID = '6/4098.c'
source_filename = "6/4098.c"
target datalayout = "e-m:e-p270:32:32-p271:32:32-p272:64:64-i64:64-f80:128-n8:16:32:64-S128"
target triple = "x86_64-pc-linux-gnu"

@.str = private unnamed_addr constant [3 x i8] c"%d\00", align 1
@.str.1 = private unnamed_addr constant [5 x i8] c"%d%d\00", align 1
@.str.2 = private unnamed_addr constant [2 x i8] c"\0A\00", align 1

; Function Attrs: noinline nounwind uwtable
define dso_local void @main() #0 {
  %1 = alloca i32*, align 8
  %2 = alloca i32*, align 8
  %3 = alloca i32*, align 8
  %4 = alloca i32*, align 8
  %5 = alloca i32, align 4
  %6 = alloca i32, align 4
  %7 = alloca i32, align 4
  %8 = alloca i32, align 4
  %9 = alloca i32, align 4
  %10 = alloca i32, align 4
  %11 = call noalias i8* @calloc(i64 1000000, i64 4) #3
  %12 = bitcast i8* %11 to i32*
  store i32* %12, i32** %1, align 8
  %13 = call noalias i8* @calloc(i64 10, i64 4) #3
  %14 = bitcast i8* %13 to i32*
  store i32* %14, i32** %2, align 8
  %15 = call i32 (i8*, ...) @__isoc99_scanf(i8* getelementptr inbounds ([3 x i8], [3 x i8]* @.str, i64 0, i64 0), i32* %9)
  %16 = load i32*, i32** %1, align 8
  store i32* %16, i32** %3, align 8
  %17 = load i32*, i32** %2, align 8
  store i32* %17, i32** %4, align 8
  store i32 0, i32* %5, align 4
  br label %18

18:                                               ; preds = %124, %0
  %19 = load i32, i32* %5, align 4
  %20 = load i32, i32* %9, align 4
  %21 = icmp slt i32 %19, %20
  br i1 %21, label %22, label %127

22:                                               ; preds = %18
  store i32 0, i32* %10, align 4
  %23 = call i32 (i8*, ...) @__isoc99_scanf(i8* getelementptr inbounds ([5 x i8], [5 x i8]* @.str.1, i64 0, i64 0), i32* %7, i32* %8)
  store i32 0, i32* %6, align 4
  br label %24

24:                                               ; preds = %36, %22
  %25 = load i32, i32* %6, align 4
  %26 = load i32, i32* %7, align 4
  %27 = load i32, i32* %8, align 4
  %28 = mul nsw i32 %26, %27
  %29 = icmp slt i32 %25, %28
  br i1 %29, label %30, label %39

30:                                               ; preds = %24
  %31 = load i32*, i32** %3, align 8
  %32 = load i32, i32* %6, align 4
  %33 = sext i32 %32 to i64
  %34 = getelementptr inbounds i32, i32* %31, i64 %33
  %35 = call i32 (i8*, ...) @__isoc99_scanf(i8* getelementptr inbounds ([3 x i8], [3 x i8]* @.str, i64 0, i64 0), i32* %34)
  br label %36

36:                                               ; preds = %30
  %37 = load i32, i32* %6, align 4
  %38 = add nsw i32 %37, 1
  store i32 %38, i32* %6, align 4
  br label %24

39:                                               ; preds = %24
  store i32 0, i32* %6, align 4
  br label %40

40:                                               ; preds = %52, %39
  %41 = load i32, i32* %6, align 4
  %42 = load i32, i32* %8, align 4
  %43 = icmp slt i32 %41, %42
  br i1 %43, label %44, label %55

44:                                               ; preds = %40
  %45 = load i32*, i32** %3, align 8
  %46 = load i32, i32* %6, align 4
  %47 = sext i32 %46 to i64
  %48 = getelementptr inbounds i32, i32* %45, i64 %47
  %49 = load i32, i32* %48, align 4
  %50 = load i32, i32* %10, align 4
  %51 = add nsw i32 %50, %49
  store i32 %51, i32* %10, align 4
  br label %52

52:                                               ; preds = %44
  %53 = load i32, i32* %6, align 4
  %54 = add nsw i32 %53, 1
  store i32 %54, i32* %6, align 4
  br label %40

55:                                               ; preds = %40
  %56 = load i32, i32* %8, align 4
  %57 = load i32, i32* %7, align 4
  %58 = sub nsw i32 %57, 1
  %59 = mul nsw i32 %56, %58
  store i32 %59, i32* %6, align 4
  br label %60

60:                                               ; preds = %74, %55
  %61 = load i32, i32* %6, align 4
  %62 = load i32, i32* %7, align 4
  %63 = load i32, i32* %8, align 4
  %64 = mul nsw i32 %62, %63
  %65 = icmp slt i32 %61, %64
  br i1 %65, label %66, label %77

66:                                               ; preds = %60
  %67 = load i32*, i32** %3, align 8
  %68 = load i32, i32* %6, align 4
  %69 = sext i32 %68 to i64
  %70 = getelementptr inbounds i32, i32* %67, i64 %69
  %71 = load i32, i32* %70, align 4
  %72 = load i32, i32* %10, align 4
  %73 = add nsw i32 %72, %71
  store i32 %73, i32* %10, align 4
  br label %74

74:                                               ; preds = %66
  %75 = load i32, i32* %6, align 4
  %76 = add nsw i32 %75, 1
  store i32 %76, i32* %6, align 4
  br label %60

77:                                               ; preds = %60
  %78 = load i32, i32* %8, align 4
  store i32 %78, i32* %6, align 4
  br label %79

79:                                               ; preds = %86, %77
  %80 = load i32, i32* %6, align 4
  %81 = load i32, i32* %7, align 4
  %82 = sub nsw i32 %81, 1
  %83 = load i32, i32* %8, align 4
  %84 = mul nsw i32 %82, %83
  %85 = icmp slt i32 %80, %84
  br i1 %85, label %86, label %97

86:                                               ; preds = %79
  %87 = load i32*, i32** %3, align 8
  %88 = load i32, i32* %6, align 4
  %89 = sext i32 %88 to i64
  %90 = getelementptr inbounds i32, i32* %87, i64 %89
  %91 = load i32, i32* %90, align 4
  %92 = load i32, i32* %10, align 4
  %93 = add nsw i32 %92, %91
  store i32 %93, i32* %10, align 4
  %94 = load i32, i32* %8, align 4
  %95 = load i32, i32* %6, align 4
  %96 = add nsw i32 %95, %94
  store i32 %96, i32* %6, align 4
  br label %79

97:                                               ; preds = %79
  %98 = load i32, i32* %8, align 4
  %99 = load i32, i32* %8, align 4
  %100 = add nsw i32 %98, %99
  %101 = sub nsw i32 %100, 1
  store i32 %101, i32* %6, align 4
  br label %102

102:                                              ; preds = %109, %97
  %103 = load i32, i32* %6, align 4
  %104 = load i32, i32* %7, align 4
  %105 = sub nsw i32 %104, 1
  %106 = load i32, i32* %8, align 4
  %107 = mul nsw i32 %105, %106
  %108 = icmp slt i32 %103, %107
  br i1 %108, label %109, label %120

109:                                              ; preds = %102
  %110 = load i32*, i32** %3, align 8
  %111 = load i32, i32* %6, align 4
  %112 = sext i32 %111 to i64
  %113 = getelementptr inbounds i32, i32* %110, i64 %112
  %114 = load i32, i32* %113, align 4
  %115 = load i32, i32* %10, align 4
  %116 = add nsw i32 %115, %114
  store i32 %116, i32* %10, align 4
  %117 = load i32, i32* %8, align 4
  %118 = load i32, i32* %6, align 4
  %119 = add nsw i32 %118, %117
  store i32 %119, i32* %6, align 4
  br label %102

120:                                              ; preds = %102
  %121 = load i32, i32* %10, align 4
  %122 = load i32*, i32** %4, align 8
  %123 = getelementptr inbounds i32, i32* %122, i32 1
  store i32* %123, i32** %4, align 8
  store i32 %121, i32* %122, align 4
  br label %124

124:                                              ; preds = %120
  %125 = load i32, i32* %5, align 4
  %126 = add nsw i32 %125, 1
  store i32 %126, i32* %5, align 4
  br label %18

127:                                              ; preds = %18
  %128 = load i32*, i32** %2, align 8
  store i32* %128, i32** %4, align 8
  br label %129

129:                                              ; preds = %141, %127
  %130 = load i32*, i32** %4, align 8
  %131 = load i32*, i32** %2, align 8
  %132 = load i32, i32* %9, align 4
  %133 = sext i32 %132 to i64
  %134 = getelementptr inbounds i32, i32* %131, i64 %133
  %135 = icmp ult i32* %130, %134
  br i1 %135, label %136, label %144

136:                                              ; preds = %129
  %137 = load i32*, i32** %4, align 8
  %138 = load i32, i32* %137, align 4
  %139 = call i32 (i8*, ...) @printf(i8* getelementptr inbounds ([3 x i8], [3 x i8]* @.str, i64 0, i64 0), i32 %138)
  %140 = call i32 (i8*, ...) @printf(i8* getelementptr inbounds ([2 x i8], [2 x i8]* @.str.2, i64 0, i64 0))
  br label %141

141:                                              ; preds = %136
  %142 = load i32*, i32** %4, align 8
  %143 = getelementptr inbounds i32, i32* %142, i32 1
  store i32* %143, i32** %4, align 8
  br label %129

144:                                              ; preds = %129
  %145 = load i32*, i32** %1, align 8
  %146 = bitcast i32* %145 to i8*
  call void @free(i8* %146) #3
  %147 = load i32*, i32** %2, align 8
  %148 = bitcast i32* %147 to i8*
  call void @free(i8* %148) #3
  ret void
}

; Function Attrs: nounwind
declare dso_local noalias i8* @calloc(i64, i64) #1

declare dso_local i32 @__isoc99_scanf(i8*, ...) #2

declare dso_local i32 @printf(i8*, ...) #2

; Function Attrs: nounwind
declare dso_local void @free(i8*) #1


!llvm.module.flags = !{!0}
!llvm.ident = !{!1}

!0 = !{i32 1, !"wchar_size", i32 4}
!1 = !{!"clang version 10.0.0-4ubuntu1 "}
